target datalayout = "e-m:e-p270:32:32-p271:32:32-p272:64:64-i64:64-i128:128-f80:128-n8:16:32:64-S128"
target triple = "x86_64-pc-linux-gnu"

%"struct.Luau::NotNull.1" = type { ptr }
%"struct.Luau::NotNull.2" = type { ptr }
%"struct.Luau::NotNull.3" = type { ptr }
%"struct.Luau::TypeCheckLimits" = type { %"class.std::optional", %"class.std::optional.5", %"class.std::optional.5", %"class.std::shared_ptr" }
%"class.std::optional" = type { %"struct.std::_Optional_base" }
%"struct.std::_Optional_base" = type { %"struct.std::_Optional_payload" }
%"struct.std::_Optional_payload" = type { %"struct.std::_Optional_payload_base.base", [7 x i8] }
%"struct.std::_Optional_payload_base.base" = type <{ %"union.std::_Optional_payload_base<double>::_Storage", i8 }>
%"union.std::_Optional_payload_base<double>::_Storage" = type { double }
%"class.std::optional.5" = type { %"struct.std::_Optional_base.6" }
%"struct.std::_Optional_base.6" = type { %"struct.std::_Optional_payload.8" }
%"struct.std::_Optional_payload.8" = type { %"struct.std::_Optional_payload_base.base.10", [3 x i8] }
%"struct.std::_Optional_payload_base.base.10" = type <{ %"union.std::_Optional_payload_base<int>::_Storage", i8 }>
%"union.std::_Optional_payload_base<int>::_Storage" = type { i32 }
%"class.std::shared_ptr" = type { %"class.std::__shared_ptr" }
%"class.std::__shared_ptr" = type { ptr, %"class.std::__shared_count" }
%"class.std::__shared_count" = type { ptr }
%"struct.Luau::ConstraintSolver" = type { %"struct.Luau::NotNull.1", %"struct.Luau::NotNull.2", %"struct.Luau::InternalErrorReporter", %"struct.Luau::NotNull.34", %"struct.Luau::NotNull.35", %"struct.Luau::NotNull.36", %"class.std::vector.37", %"struct.Luau::NotNull.3", %"class.std::__cxx11::basic_string", %"struct.Luau::NotNull.42", %"class.std::vector.43", %"class.std::vector.48", %"class.std::unordered_map", %"class.std::unordered_map.58", %"class.Luau::DenseHashMap.76", %"class.Luau::DenseHashMap.99", %"class.Luau::DenseHashMap.102", %"class.std::unordered_map.105", %"class.Luau::DenseHashSet.119", %"class.Luau::DenseHashSet.122", %"struct.Luau::NotNull.125", %"class.std::vector.126", %"struct.Luau::NotNull.131", %"class.std::vector.132", ptr, %"struct.Luau::TypeCheckLimits", %"class.Luau::DenseHashMap.137", %"struct.Luau::ToStringOptions" }
%"struct.Luau::InternalErrorReporter" = type { %"class.std::function", %"class.std::__cxx11::basic_string" }
%"class.std::function" = type { %"class.std::_Function_base", ptr }
%"class.std::_Function_base" = type { %"union.std::_Any_data", ptr }
%"union.std::_Any_data" = type { %"union.std::_Nocopy_types" }
%"union.std::_Nocopy_types" = type { { i64, i64 } }
%"struct.Luau::NotNull.34" = type { ptr }
%"struct.Luau::NotNull.35" = type { ptr }
%"struct.Luau::NotNull.36" = type { ptr }
%"class.std::vector.37" = type { %"struct.std::_Vector_base.38" }
%"struct.std::_Vector_base.38" = type { %"struct.std::_Vector_base<Luau::NotNull<Luau::Constraint>, std::allocator<Luau::NotNull<Luau::Constraint>>>::_Vector_impl" }
%"struct.std::_Vector_base<Luau::NotNull<Luau::Constraint>, std::allocator<Luau::NotNull<Luau::Constraint>>>::_Vector_impl" = type { %"struct.std::_Vector_base<Luau::NotNull<Luau::Constraint>, std::allocator<Luau::NotNull<Luau::Constraint>>>::_Vector_impl_data" }
%"struct.std::_Vector_base<Luau::NotNull<Luau::Constraint>, std::allocator<Luau::NotNull<Luau::Constraint>>>::_Vector_impl_data" = type { ptr, ptr, ptr }
%"class.std::__cxx11::basic_string" = type { %"struct.std::__cxx11::basic_string<char>::_Alloc_hider", i64, %union.anon }
%"struct.std::__cxx11::basic_string<char>::_Alloc_hider" = type { ptr }
%union.anon = type { i64, [8 x i8] }
%"struct.Luau::NotNull.42" = type { ptr }
%"class.std::vector.43" = type { %"struct.std::_Vector_base.44" }
%"struct.std::_Vector_base.44" = type { %"struct.std::_Vector_base<std::unique_ptr<Luau::Constraint>, std::allocator<std::unique_ptr<Luau::Constraint>>>::_Vector_impl" }
%"struct.std::_Vector_base<std::unique_ptr<Luau::Constraint>, std::allocator<std::unique_ptr<Luau::Constraint>>>::_Vector_impl" = type { %"struct.std::_Vector_base<std::unique_ptr<Luau::Constraint>, std::allocator<std::unique_ptr<Luau::Constraint>>>::_Vector_impl_data" }
%"struct.std::_Vector_base<std::unique_ptr<Luau::Constraint>, std::allocator<std::unique_ptr<Luau::Constraint>>>::_Vector_impl_data" = type { ptr, ptr, ptr }
%"class.std::vector.48" = type { %"struct.std::_Vector_base.49" }
%"struct.std::_Vector_base.49" = type { %"struct.std::_Vector_base<Luau::NotNull<const Luau::Constraint>, std::allocator<Luau::NotNull<const Luau::Constraint>>>::_Vector_impl" }
%"struct.std::_Vector_base<Luau::NotNull<const Luau::Constraint>, std::allocator<Luau::NotNull<const Luau::Constraint>>>::_Vector_impl" = type { %"struct.std::_Vector_base<Luau::NotNull<const Luau::Constraint>, std::allocator<Luau::NotNull<const Luau::Constraint>>>::_Vector_impl_data" }
%"struct.std::_Vector_base<Luau::NotNull<const Luau::Constraint>, std::allocator<Luau::NotNull<const Luau::Constraint>>>::_Vector_impl_data" = type { ptr, ptr, ptr }
%"class.std::unordered_map" = type { %"class.std::_Hashtable" }
%"class.std::_Hashtable" = type { ptr, i64, %"struct.std::__detail::_Hash_node_base", i64, %"struct.std::__detail::_Prime_rehash_policy", ptr }
%"struct.std::__detail::_Hash_node_base" = type { ptr }
%"struct.std::__detail::_Prime_rehash_policy" = type { float, i64 }
%"class.std::unordered_map.58" = type { %"class.std::_Hashtable.59" }
%"class.std::_Hashtable.59" = type { ptr, i64, %"struct.std::__detail::_Hash_node_base", i64, %"struct.std::__detail::_Prime_rehash_policy", ptr }
%"class.Luau::DenseHashMap.76" = type { %"class.Luau::detail::DenseHashTable.77" }
%"class.Luau::detail::DenseHashTable.77" = type <{ ptr, i64, i64, %"struct.Luau::InstantiationSignature", [8 x i8] }>
%"struct.Luau::InstantiationSignature" = type { %"struct.Luau::TypeFun", %"class.std::vector.88", %"class.std::vector.93" }
%"struct.Luau::TypeFun" = type { %"class.std::vector.78", %"class.std::vector.83", ptr }
%"class.std::vector.78" = type { %"struct.std::_Vector_base.79" }
%"struct.std::_Vector_base.79" = type { %"struct.std::_Vector_base<Luau::GenericTypeDefinition, std::allocator<Luau::GenericTypeDefinition>>::_Vector_impl" }
%"struct.std::_Vector_base<Luau::GenericTypeDefinition, std::allocator<Luau::GenericTypeDefinition>>::_Vector_impl" = type { %"struct.std::_Vector_base<Luau::GenericTypeDefinition, std::allocator<Luau::GenericTypeDefinition>>::_Vector_impl_data" }
%"struct.std::_Vector_base<Luau::GenericTypeDefinition, std::allocator<Luau::GenericTypeDefinition>>::_Vector_impl_data" = type { ptr, ptr, ptr }
%"class.std::vector.83" = type { %"struct.std::_Vector_base.84" }
%"struct.std::_Vector_base.84" = type { %"struct.std::_Vector_base<Luau::GenericTypePackDefinition, std::allocator<Luau::GenericTypePackDefinition>>::_Vector_impl" }
%"struct.std::_Vector_base<Luau::GenericTypePackDefinition, std::allocator<Luau::GenericTypePackDefinition>>::_Vector_impl" = type { %"struct.std::_Vector_base<Luau::GenericTypePackDefinition, std::allocator<Luau::GenericTypePackDefinition>>::_Vector_impl_data" }
%"struct.std::_Vector_base<Luau::GenericTypePackDefinition, std::allocator<Luau::GenericTypePackDefinition>>::_Vector_impl_data" = type { ptr, ptr, ptr }
%"class.std::vector.88" = type { %"struct.std::_Vector_base.89" }
%"struct.std::_Vector_base.89" = type { %"struct.std::_Vector_base<const Luau::Type *, std::allocator<const Luau::Type *>>::_Vector_impl" }
%"struct.std::_Vector_base<const Luau::Type *, std::allocator<const Luau::Type *>>::_Vector_impl" = type { %"struct.std::_Vector_base<const Luau::Type *, std::allocator<const Luau::Type *>>::_Vector_impl_data" }
%"struct.std::_Vector_base<const Luau::Type *, std::allocator<const Luau::Type *>>::_Vector_impl_data" = type { ptr, ptr, ptr }
%"class.std::vector.93" = type { %"struct.std::_Vector_base.94" }
%"struct.std::_Vector_base.94" = type { %"struct.std::_Vector_base<const Luau::TypePackVar *, std::allocator<const Luau::TypePackVar *>>::_Vector_impl" }
%"struct.std::_Vector_base<const Luau::TypePackVar *, std::allocator<const Luau::TypePackVar *>>::_Vector_impl" = type { %"struct.std::_Vector_base<const Luau::TypePackVar *, std::allocator<const Luau::TypePackVar *>>::_Vector_impl_data" }
%"struct.std::_Vector_base<const Luau::TypePackVar *, std::allocator<const Luau::TypePackVar *>>::_Vector_impl_data" = type { ptr, ptr, ptr }
%"class.Luau::DenseHashMap.99" = type { %"class.Luau::detail::DenseHashTable.100" }
%"class.Luau::detail::DenseHashTable.100" = type <{ ptr, i64, i64, ptr, [8 x i8] }>
%"class.Luau::DenseHashMap.102" = type { %"class.Luau::detail::DenseHashTable.103" }
%"class.Luau::detail::DenseHashTable.103" = type <{ ptr, i64, i64, ptr, [8 x i8] }>
%"class.std::unordered_map.105" = type { %"class.std::_Hashtable.106" }
%"class.std::_Hashtable.106" = type { ptr, i64, %"struct.std::__detail::_Hash_node_base", i64, %"struct.std::__detail::_Prime_rehash_policy", ptr }
%"class.Luau::DenseHashSet.119" = type { %"class.Luau::detail::DenseHashTable.120" }
%"class.Luau::detail::DenseHashTable.120" = type <{ ptr, i64, i64, ptr, [8 x i8] }>
%"class.Luau::DenseHashSet.122" = type { %"class.Luau::detail::DenseHashTable.123" }
%"class.Luau::detail::DenseHashTable.123" = type <{ ptr, i64, i64, ptr, [8 x i8] }>
%"struct.Luau::NotNull.125" = type { ptr }
%"class.std::vector.126" = type { %"struct.std::_Vector_base.127" }
%"struct.std::_Vector_base.127" = type { %"struct.std::_Vector_base<Luau::TypeError, std::allocator<Luau::TypeError>>::_Vector_impl" }
%"struct.std::_Vector_base<Luau::TypeError, std::allocator<Luau::TypeError>>::_Vector_impl" = type { %"struct.std::_Vector_base<Luau::TypeError, std::allocator<Luau::TypeError>>::_Vector_impl_data" }
%"struct.std::_Vector_base<Luau::TypeError, std::allocator<Luau::TypeError>>::_Vector_impl_data" = type { ptr, ptr, ptr }
%"struct.Luau::NotNull.131" = type { ptr }
%"class.std::vector.132" = type { %"struct.std::_Vector_base.133" }
%"struct.std::_Vector_base.133" = type { %"struct.std::_Vector_base<Luau::RequireCycle, std::allocator<Luau::RequireCycle>>::_Vector_impl" }
%"struct.std::_Vector_base<Luau::RequireCycle, std::allocator<Luau::RequireCycle>>::_Vector_impl" = type { %"struct.std::_Vector_base<Luau::RequireCycle, std::allocator<Luau::RequireCycle>>::_Vector_impl_data" }
%"struct.std::_Vector_base<Luau::RequireCycle, std::allocator<Luau::RequireCycle>>::_Vector_impl_data" = type { ptr, ptr, ptr }
%"class.Luau::DenseHashMap.137" = type { %"class.Luau::detail::DenseHashTable.138" }
%"class.Luau::detail::DenseHashTable.138" = type <{ ptr, i64, i64, ptr, [8 x i8] }>
%"struct.Luau::ToStringOptions" = type { i8, i8, i8, i8, i8, i8, i8, i64, i64, i64, %"struct.Luau::ToStringNameMap", %"class.std::shared_ptr.179", %"class.std::vector.182" }
%"struct.Luau::ToStringNameMap" = type { %"class.std::unordered_map.140", %"class.std::unordered_map.159" }
%"class.std::unordered_map.140" = type { %"class.std::_Hashtable.141" }
%"class.std::_Hashtable.141" = type { ptr, i64, %"struct.std::__detail::_Hash_node_base", i64, %"struct.std::__detail::_Prime_rehash_policy", ptr }
%"class.std::unordered_map.159" = type { %"class.std::_Hashtable.160" }
%"class.std::_Hashtable.160" = type { ptr, i64, %"struct.std::__detail::_Hash_node_base", i64, %"struct.std::__detail::_Prime_rehash_policy", ptr }
%"class.std::shared_ptr.179" = type { %"class.std::__shared_ptr.180" }
%"class.std::__shared_ptr.180" = type { ptr, %"class.std::__shared_count" }
%"class.std::vector.182" = type { %"struct.std::_Vector_base.183" }
%"struct.std::_Vector_base.183" = type { %"struct.std::_Vector_base<std::__cxx11::basic_string<char>, std::allocator<std::__cxx11::basic_string<char>>>::_Vector_impl" }
%"struct.std::_Vector_base<std::__cxx11::basic_string<char>, std::allocator<std::__cxx11::basic_string<char>>>::_Vector_impl" = type { %"struct.std::_Vector_base<std::__cxx11::basic_string<char>, std::allocator<std::__cxx11::basic_string<char>>>::_Vector_impl_data" }
%"struct.std::_Vector_base<std::__cxx11::basic_string<char>, std::allocator<std::__cxx11::basic_string<char>>>::_Vector_impl_data" = type { ptr, ptr, ptr }

@_ZTIN4Luau15UserCancelErrorE = linkonce_odr dso_local constant { ptr, ptr, ptr } { ptr getelementptr inbounds (ptr, ptr @_ZTVN10__cxxabiv120__si_class_type_infoE, i64 2), ptr @_ZTSN4Luau15UserCancelErrorE, ptr @_ZTIN4Luau21InternalCompilerErrorE }, comdat, align 8

; Function Attrs: mustprogress noinline uwtable
define dso_local void @_ZNK4Luau16ConstraintSolver20throwUserCancelErrorEv(ptr noundef nonnull align 8 dereferenceable(1032) %0) #11 align 2 personality ptr @__gxx_personality_v0 {
  %2 = alloca ptr, align 8
  %3 = alloca ptr, align 8
  %4 = alloca i32, align 4
  store ptr %0, ptr %2, align 8, !tbaa !42
  %5 = load ptr, ptr %2, align 8
  %6 = call ptr @__cxa_allocate_exception(i64 104) #4
  %7 = getelementptr inbounds nuw %"struct.Luau::ConstraintSolver", ptr %5, i32 0, i32 8
  invoke void @_ZN4Luau15UserCancelErrorC2ERKNSt7__cxx1112basic_stringIcSt11char_traitsIcESaIcEEE(ptr noundef nonnull align 8 dereferenceable(100) %6, ptr noundef nonnull align 8 dereferenceable(32) %7)
          to label %8 unwind label %9

8:                                                ; preds = %1
  call void @__cxa_throw(ptr %6, ptr @_ZTIN4Luau15UserCancelErrorE, ptr @_ZN4Luau21InternalCompilerErrorD2Ev) #23
  unreachable

9:                                                ; preds = %1
  %10 = landingpad { ptr, i32 }
          cleanup
  %11 = extractvalue { ptr, i32 } %10, 0
  store ptr %11, ptr %3, align 8
  %12 = extractvalue { ptr, i32 } %10, 1
  store i32 %12, ptr %4, align 4
  call void @__cxa_free_exception(ptr %6) #4
  br label %13

13:                                               ; preds = %9
  %14 = load ptr, ptr %3, align 8
  %15 = load i32, ptr %4, align 4
  %16 = insertvalue { ptr, i32 } poison, ptr %14, 0
  %17 = insertvalue { ptr, i32 } %16, i32 %15, 1
  resume { ptr, i32 } %17
}